; ModuleID = '46/2037.c'
source_filename = "46/2037.c"
target datalayout = "e-m:e-p270:32:32-p271:32:32-p272:64:64-i64:64-f80:128-n8:16:32:64-S128"
target triple = "x86_64-pc-linux-gnu"

@.str = private unnamed_addr constant [5 x i8] c"%d%d\00", align 1
@.str.1 = private unnamed_addr constant [3 x i8] c"%d\00", align 1
@.str.2 = private unnamed_addr constant [4 x i8] c"%d\0A\00", align 1

; Function Attrs: noinline nounwind uwtable
define dso_local i32 @main() #0 {
  %1 = alloca i32, align 4
  %2 = alloca [100 x [100 x i32]], align 16
  %3 = alloca i32, align 4
  %4 = alloca i32, align 4
  %5 = alloca i32, align 4
  %6 = alloca i32, align 4
  %7 = alloca i32, align 4
  %8 = alloca i32, align 4
  %9 = alloca i32, align 4
  %10 = alloca i32, align 4
  store i32 0, i32* %1, align 4
  store i32 0, i32* %5, align 4
  store i32 0, i32* %8, align 4
  %11 = call i32 (i8*, ...) @__isoc99_scanf(i8* getelementptr inbounds ([5 x i8], [5 x i8]* @.str, i64 0, i64 0), i32* %3, i32* %4)
  %12 = load i32, i32* %3, align 4
  %13 = load i32, i32* %4, align 4
  %14 = mul nsw i32 %12, %13
  store i32 %14, i32* %5, align 4
  store i32 0, i32* %6, align 4
  br label %15

15:                                               ; preds = %36, %0
  %16 = load i32, i32* %6, align 4
  %17 = load i32, i32* %3, align 4
  %18 = icmp slt i32 %16, %17
  br i1 %18, label %19, label %39

19:                                               ; preds = %15
  store i32 0, i32* %9, align 4
  br label %20

20:                                               ; preds = %32, %19
  %21 = load i32, i32* %9, align 4
  %22 = load i32, i32* %4, align 4
  %23 = icmp slt i32 %21, %22
  br i1 %23, label %24, label %35

24:                                               ; preds = %20
  %25 = load i32, i32* %6, align 4
  %26 = sext i32 %25 to i64
  %27 = getelementptr inbounds [100 x [100 x i32]], [100 x [100 x i32]]* %2, i64 0, i64 %26
  %28 = load i32, i32* %9, align 4
  %29 = sext i32 %28 to i64
  %30 = getelementptr inbounds [100 x i32], [100 x i32]* %27, i64 0, i64 %29
  %31 = call i32 (i8*, ...) @__isoc99_scanf(i8* getelementptr inbounds ([3 x i8], [3 x i8]* @.str.1, i64 0, i64 0), i32* %30)
  br label %32

32:                                               ; preds = %24
  %33 = load i32, i32* %9, align 4
  %34 = add nsw i32 %33, 1
  store i32 %34, i32* %9, align 4
  br label %20

35:                                               ; preds = %20
  br label %36

36:                                               ; preds = %35
  %37 = load i32, i32* %6, align 4
  %38 = add nsw i32 %37, 1
  store i32 %38, i32* %6, align 4
  br label %15

39:                                               ; preds = %15
  store i32 0, i32* %10, align 4
  br label %40

40:                                               ; preds = %160, %39
  %41 = load i32, i32* %10, align 4
  %42 = add nsw i32 0, %41
  store i32 %42, i32* %7, align 4
  br label %43

43:                                               ; preds = %60, %40
  %44 = load i32, i32* %7, align 4
  %45 = load i32, i32* %4, align 4
  %46 = load i32, i32* %10, align 4
  %47 = sub nsw i32 %45, %46
  %48 = icmp slt i32 %44, %47
  br i1 %48, label %49, label %63

49:                                               ; preds = %43
  %50 = load i32, i32* %10, align 4
  %51 = sext i32 %50 to i64
  %52 = getelementptr inbounds [100 x [100 x i32]], [100 x [100 x i32]]* %2, i64 0, i64 %51
  %53 = load i32, i32* %7, align 4
  %54 = sext i32 %53 to i64
  %55 = getelementptr inbounds [100 x i32], [100 x i32]* %52, i64 0, i64 %54
  %56 = load i32, i32* %55, align 4
  %57 = call i32 (i8*, ...) @printf(i8* getelementptr inbounds ([4 x i8], [4 x i8]* @.str.2, i64 0, i64 0), i32 %56)
  %58 = load i32, i32* %8, align 4
  %59 = add nsw i32 %58, 1
  store i32 %59, i32* %8, align 4
  br label %60

60:                                               ; preds = %49
  %61 = load i32, i32* %7, align 4
  %62 = add nsw i32 %61, 1
  store i32 %62, i32* %7, align 4
  br label %43

63:                                               ; preds = %43
  %64 = load i32, i32* %5, align 4
  %65 = load i32, i32* %8, align 4
  %66 = icmp eq i32 %64, %65
  br i1 %66, label %67, label %68

67:                                               ; preds = %63
  br label %163

68:                                               ; preds = %63
  %69 = load i32, i32* %10, align 4
  %70 = add nsw i32 1, %69
  store i32 %70, i32* %6, align 4
  br label %71

71:                                               ; preds = %91, %68
  %72 = load i32, i32* %6, align 4
  %73 = load i32, i32* %3, align 4
  %74 = load i32, i32* %10, align 4
  %75 = sub nsw i32 %73, %74
  %76 = icmp slt i32 %72, %75
  br i1 %76, label %77, label %94

77:                                               ; preds = %71
  %78 = load i32, i32* %6, align 4
  %79 = sext i32 %78 to i64
  %80 = getelementptr inbounds [100 x [100 x i32]], [100 x [100 x i32]]* %2, i64 0, i64 %79
  %81 = load i32, i32* %4, align 4
  %82 = sub nsw i32 %81, 1
  %83 = load i32, i32* %10, align 4
  %84 = sub nsw i32 %82, %83
  %85 = sext i32 %84 to i64
  %86 = getelementptr inbounds [100 x i32], [100 x i32]* %80, i64 0, i64 %85
  %87 = load i32, i32* %86, align 4
  %88 = call i32 (i8*, ...) @printf(i8* getelementptr inbounds ([4 x i8], [4 x i8]* @.str.2, i64 0, i64 0), i32 %87)
  %89 = load i32, i32* %8, align 4
  %90 = add nsw i32 %89, 1
  store i32 %90, i32* %8, align 4
  br label %91

91:                                               ; preds = %77
  %92 = load i32, i32* %6, align 4
  %93 = add nsw i32 %92, 1
  store i32 %93, i32* %6, align 4
  br label %71

94:                                               ; preds = %71
  %95 = load i32, i32* %5, align 4
  %96 = load i32, i32* %8, align 4
  %97 = icmp eq i32 %95, %96
  br i1 %97, label %98, label %99

98:                                               ; preds = %94
  br label %163

99:                                               ; preds = %94
  %100 = load i32, i32* %4, align 4
  %101 = sub nsw i32 %100, 2
  %102 = load i32, i32* %10, align 4
  %103 = sub nsw i32 %101, %102
  store i32 %103, i32* %7, align 4
  br label %104

104:                                              ; preds = %123, %99
  %105 = load i32, i32* %7, align 4
  %106 = load i32, i32* %10, align 4
  %107 = add nsw i32 0, %106
  %108 = icmp sge i32 %105, %107
  br i1 %108, label %109, label %126

109:                                              ; preds = %104
  %110 = load i32, i32* %3, align 4
  %111 = sub nsw i32 %110, 1
  %112 = load i32, i32* %10, align 4
  %113 = sub nsw i32 %111, %112
  %114 = sext i32 %113 to i64
  %115 = getelementptr inbounds [100 x [100 x i32]], [100 x [100 x i32]]* %2, i64 0, i64 %114
  %116 = load i32, i32* %7, align 4
  %117 = sext i32 %116 to i64
  %118 = getelementptr inbounds [100 x i32], [100 x i32]* %115, i64 0, i64 %117
  %119 = load i32, i32* %118, align 4
  %120 = call i32 (i8*, ...) @printf(i8* getelementptr inbounds ([4 x i8], [4 x i8]* @.str.2, i64 0, i64 0), i32 %119)
  %121 = load i32, i32* %8, align 4
  %122 = add nsw i32 %121, 1
  store i32 %122, i32* %8, align 4
  br label %123

123:                                              ; preds = %109
  %124 = load i32, i32* %7, align 4
  %125 = add nsw i32 %124, -1
  store i32 %125, i32* %7, align 4
  br label %104

126:                                              ; preds = %104
  %127 = load i32, i32* %5, align 4
  %128 = load i32, i32* %8, align 4
  %129 = icmp eq i32 %127, %128
  br i1 %129, label %130, label %131

130:                                              ; preds = %126
  br label %163

131:                                              ; preds = %126
  %132 = load i32, i32* %3, align 4
  %133 = sub nsw i32 %132, 2
  %134 = load i32, i32* %10, align 4
  %135 = sub nsw i32 %133, %134
  store i32 %135, i32* %6, align 4
  br label %136

136:                                              ; preds = %151, %131
  %137 = load i32, i32* %6, align 4
  %138 = load i32, i32* %10, align 4
  %139 = icmp sgt i32 %137, %138
  br i1 %139, label %140, label %154

140:                                              ; preds = %136
  %141 = load i32, i32* %6, align 4
  %142 = sext i32 %141 to i64
  %143 = getelementptr inbounds [100 x [100 x i32]], [100 x [100 x i32]]* %2, i64 0, i64 %142
  %144 = load i32, i32* %10, align 4
  %145 = sext i32 %144 to i64
  %146 = getelementptr inbounds [100 x i32], [100 x i32]* %143, i64 0, i64 %145
  %147 = load i32, i32* %146, align 4
  %148 = call i32 (i8*, ...) @printf(i8* getelementptr inbounds ([4 x i8], [4 x i8]* @.str.2, i64 0, i64 0), i32 %147)
  %149 = load i32, i32* %8, align 4
  %150 = add nsw i32 %149, 1
  store i32 %150, i32* %8, align 4
  br label %151

151:                                              ; preds = %140
  %152 = load i32, i32* %6, align 4
  %153 = add nsw i32 %152, -1
  store i32 %153, i32* %6, align 4
  br label %136

154:                                              ; preds = %136
  %155 = load i32, i32* %5, align 4
  %156 = load i32, i32* %8, align 4
  %157 = icmp eq i32 %155, %156
  br i1 %157, label %158, label %159

158:                                              ; preds = %154
  br label %163

159:                                              ; preds = %154
  br label %160

160:                                              ; preds = %159
  %161 = load i32, i32* %10, align 4
  %162 = add nsw i32 %161, 1
  store i32 %162, i32* %10, align 4
  br label %40

163:                                              ; preds = %158, %130, %98, %67
  ret i32 0
}

declare dso_local i32 @__isoc99_scanf(i8*, ...) #1

declare dso_local i32 @printf(i8*, ...) #1


!llvm.module.flags = !{!0}
!llvm.ident = !{!1}

!0 = !{i32 1, !"wchar_size", i32 4}
!1 = !{!"clang version 10.0.0-4ubuntu1 "}
